target datalayout = "e-m:e-p270:32:32-p271:32:32-p272:64:64-i64:64-i128:128-f80:128-n8:16:32:64-S128"
target triple = "x86_64-unknown-linux-gnu"

%"class.sat::parallel::vector_pool" = type { %class.svector, i32, i32, %class.svector, %class.svector.0 }
%class.svector = type { %class.vector }
%class.vector = type { ptr }
%class.svector.0 = type { %class.vector.1 }
%class.vector.1 = type { ptr }

; Function Attrs: mustprogress nounwind uwtable
define linkonce_odr hidden noundef nonnull align 4 dereferenceable(4) ptr @_ZNK6vectorIjLb0EjEixEj(ptr noundef nonnull align 8 dereferenceable(8) %this, i32 noundef %idx) #4 comdat align 2 {
entry:
  %this.addr = alloca ptr, align 8
  %idx.addr = alloca i32, align 4
  store ptr %this, ptr %this.addr, align 8
  store i32 %idx, ptr %idx.addr, align 4
  %this1 = load ptr, ptr %this.addr, align 8
  %m_data = getelementptr inbounds %class.vector, ptr %this1, i32 0, i32 0
  %0 = load ptr, ptr %m_data, align 8
  %1 = load i32, ptr %idx.addr, align 4
  %idxprom = zext i32 %1 to i64
  %arrayidx = getelementptr inbounds i32, ptr %0, i64 %idxprom
  ret ptr %arrayidx
}

; Function Attrs: mustprogress uwtable
define linkonce_odr hidden noundef i32 @_ZNK3sat8parallel11vector_pool10get_lengthEj(ptr noundef nonnull align 8 dereferenceable(32) %this, i32 noundef %index) #5 comdat align 2 {
entry:
  %this.addr = alloca ptr, align 8
  %index.addr = alloca i32, align 4
  store ptr %this, ptr %this.addr, align 8
  store i32 %index, ptr %index.addr, align 4
  %this1 = load ptr, ptr %this.addr, align 8
  %m_vectors = getelementptr inbounds %"class.sat::parallel::vector_pool", ptr %this1, i32 0, i32 0
  %0 = load i32, ptr %index.addr, align 4
  %add = add i32 %0, 1
  %call = call noundef nonnull align 4 dereferenceable(4) ptr @_ZNK6vectorIjLb0EjEixEj(ptr noundef nonnull align 8 dereferenceable(8) %m_vectors, i32 noundef %add)
  %1 = load i32, ptr %call, align 4
  ret i32 %1
}

; Function Attrs: mustprogress uwtable
define hidden void @_ZN3sat8parallel11vector_pool4nextERj(ptr noundef nonnull align 8 dereferenceable(32) %this, ptr noundef nonnull align 4 dereferenceable(4) %index) #5 align 2 {
entry:
  %this.addr = alloca ptr, align 8
  %index.addr = alloca ptr, align 8
  %n = alloca i32, align 4
  store ptr %this, ptr %this.addr, align 8
  store ptr %index, ptr %index.addr, align 8
  %this1 = load ptr, ptr %this.addr, align 8
  %0 = load ptr, ptr %index.addr, align 8
  %1 = load i32, ptr %0, align 4
  %add = add i32 %1, 2
  %2 = load ptr, ptr %index.addr, align 8
  %3 = load i32, ptr %2, align 4
  %call = call noundef i32 @_ZNK3sat8parallel11vector_pool10get_lengthEj(ptr noundef nonnull align 8 dereferenceable(32) %this1, i32 noundef %3)
  %add2 = add i32 %add, %call
  store i32 %add2, ptr %n, align 4
  %4 = load i32, ptr %n, align 4
  %m_size = getelementptr inbounds %"class.sat::parallel::vector_pool", ptr %this1, i32 0, i32 1
  %5 = load i32, ptr %m_size, align 8
  %cmp = icmp uge i32 %4, %5
  br i1 %cmp, label %cond.true, label %cond.false

cond.true:                                        ; preds = %entry
  br label %cond.end

cond.false:                                       ; preds = %entry
  %6 = load i32, ptr %n, align 4
  br label %cond.end

cond.end:                                         ; preds = %cond.false, %cond.true
  %cond = phi i32 [ 0, %cond.true ], [ %6, %cond.false ]
  %7 = load ptr, ptr %index.addr, align 8
  store i32 %cond, ptr %7, align 4
  ret void
}