; Function Attrs: mustprogress nofree norecurse nosync nounwind willreturn memory(read, argmem: readwrite, inaccessiblemem: none) uwtable
define hidden void @_ZN3sat8parallel11vector_pool4nextERj(ptr nocapture noundef nonnull readonly align 8 dereferenceable(32) %this, ptr nocapture noundef nonnull align 4 dereferenceable(4) %index) local_unnamed_addr #3 align 2 {
entry:
  %0 = load i32, ptr %index, align 4
  %add = add i32 %0, 2
  %add.i = add i32 %0, 1
  %1 = load ptr, ptr %this, align 8
  %idxprom.i.i = zext i32 %add.i to i64
  %arrayidx.i.i = getelementptr inbounds i32, ptr %1, i64 %idxprom.i.i
  %2 = load i32, ptr %arrayidx.i.i, align 4
  %add2 = add i32 %add, %2
  %m_size = getelementptr inbounds i8, ptr %this, i64 8
  %3 = load i32, ptr %m_size, align 8
  %cmp.not = icmp ult i32 %add2, %3
  %cond = select i1 %cmp.not, i32 %add2, i32 0
  store i32 %cond, ptr %index, align 4
  ret void
}